target datalayout = "e-m:e-p270:32:32-p271:32:32-p272:64:64-i64:64-i128:128-f80:128-n8:16:32:64-S128"
target triple = "x86_64-unknown-linux-gnu"

%struct.DeviceClass = type { %struct.ObjectClass, [1 x i64], ptr, ptr, ptr, i8, i8, ptr, ptr, ptr, ptr, ptr }
%struct.ObjectClass = type { ptr, ptr, [4 x ptr], [4 x ptr], ptr, ptr }

@.str.6 = private unnamed_addr constant [7 x i8] c"device\00", align 1
@.str.7 = private unnamed_addr constant [8 x i8] c"ufs-bus\00", align 1
@.str.8 = private unnamed_addr constant [25 x i8] c"Virtual UFS logical unit\00", align 1
@.str.9 = private unnamed_addr constant [101 x i8] c"/home/dtcxzyw/WorkSpace/Projects/compilers/llvm-opt-benchmark/bench/qemu/qemu/include/hw/qdev-core.h\00", align 1
@__func__.DEVICE_CLASS = private unnamed_addr constant [13 x i8] c"DEVICE_CLASS\00", align 1

; Function Attrs: nounwind sspstrong uwtable
define internal ptr @DEVICE_CLASS(ptr noundef %klass) #0 {
entry:
  %klass.addr = alloca ptr, align 8
  store ptr %klass, ptr %klass.addr, align 8
  %0 = load ptr, ptr %klass.addr, align 8
  %call = call ptr @object_class_dynamic_cast_assert(ptr noundef %0, ptr noundef @.str.6, ptr noundef @.str.9, i32 noundef 77, ptr noundef @__func__.DEVICE_CLASS)
  ret ptr %call
}

; Function Attrs: nounwind sspstrong uwtable
define internal void @ufs_lu_class_init(ptr noundef %oc, ptr noundef %data) #0 {
entry:
  %oc.addr = alloca ptr, align 8
  %data.addr = alloca ptr, align 8
  %dc = alloca ptr, align 8
  store ptr %oc, ptr %oc.addr, align 8
  store ptr %data, ptr %data.addr, align 8
  %0 = load ptr, ptr %oc.addr, align 8
  %call = call ptr @DEVICE_CLASS(ptr noundef %0)
  store ptr %call, ptr %dc, align 8
  %1 = load ptr, ptr %dc, align 8
  %realize = getelementptr inbounds %struct.DeviceClass, ptr %1, i32 0, i32 8
  store ptr @ufs_lu_realize, ptr %realize, align 8
  %2 = load ptr, ptr %dc, align 8
  %unrealize = getelementptr inbounds %struct.DeviceClass, ptr %2, i32 0, i32 9
  store ptr @ufs_lu_unrealize, ptr %unrealize, align 8
  %3 = load ptr, ptr %dc, align 8
  %bus_type = getelementptr inbounds %struct.DeviceClass, ptr %3, i32 0, i32 11
  store ptr @.str.7, ptr %bus_type, align 8
  %4 = load ptr, ptr %dc, align 8
  call void @device_class_set_props(ptr noundef %4, ptr noundef @ufs_lu_props)
  %5 = load ptr, ptr %dc, align 8
  %desc = getelementptr inbounds %struct.DeviceClass, ptr %5, i32 0, i32 3
  store ptr @.str.8, ptr %desc, align 8
  ret void
}