; Function Attrs: nounwind sspstrong uwtable
define internal void @ufs_lu_class_init(ptr noundef %oc, ptr readnone captures(none) %data) #1 {
entry:
  %call.i = tail call ptr @object_class_dynamic_cast_assert(ptr noundef %oc, ptr noundef nonnull @.str.6, ptr noundef nonnull @.str.9, i32 noundef 77, ptr noundef nonnull @__func__.DEVICE_CLASS) #9
  %realize = getelementptr inbounds nuw i8, ptr %call.i, i64 144
  store ptr @ufs_lu_realize, ptr %realize, align 8
  %unrealize = getelementptr inbounds nuw i8, ptr %call.i, i64 152
  store ptr @ufs_lu_unrealize, ptr %unrealize, align 8
  %bus_type = getelementptr inbounds nuw i8, ptr %call.i, i64 168
  store ptr @.str.7, ptr %bus_type, align 8
  tail call void @device_class_set_props(ptr noundef %call.i, ptr noundef nonnull @ufs_lu_props) #9
  %desc = getelementptr inbounds nuw i8, ptr %call.i, i64 112
  store ptr @.str.8, ptr %desc, align 8
  ret void
}